; Function Attrs: mustprogress uwtable
define void @_ZN32pxrInternal_v0_24__pxrReserved__24HdRendererPluginRegistry20CreateRenderDelegateERKNS_7TfTokenERKNS_9TfHashMapIS1_NS_7VtValueENS1_11HashFunctorESt8equal_toIS1_ESaISt4pairIS2_S5_EEEE(ptr dead_on_unwind noalias writable sret(%"class.pxrInternal_v0_24__pxrReserved__::HdPluginRenderDelegateUniqueHandle") align 8 %0, ptr noundef nonnull align 8 dereferenceable(96) %1, ptr noundef nonnull align 8 dereferenceable(8) %2, ptr noundef nonnull align 8 dereferenceable(56) %3) local_unnamed_addr #0 align 2 personality ptr @__gxx_personality_v0 {
  %5 = alloca %"class.pxrInternal_v0_24__pxrReserved__::HdRendererPluginHandle", align 8
  %6 = alloca %"class.pxrInternal_v0_24__pxrReserved__::TfCallContext", align 8
  tail call void @llvm.experimental.noalias.scope.decl(metadata !8)
  %7 = tail call noundef ptr @_ZN32pxrInternal_v0_24__pxrReserved__16HfPluginRegistry9GetPluginERKNS_7TfTokenE(ptr noundef nonnull align 8 dereferenceable(89) %1, ptr noundef nonnull align 8 dereferenceable(8) %2), !noalias !8
  store ptr %7, ptr %5, align 8, !alias.scope !8
  %.not = icmp eq ptr %7, null
  br i1 %.not, label %8, label %24

8:                                                ; preds = %4
  store ptr @.str.11, ptr %6, align 8
  %9 = getelementptr inbounds nuw i8, ptr %6, i64 8
  store ptr @__func__._ZN32pxrInternal_v0_24__pxrReserved__24HdRendererPluginRegistry20CreateRenderDelegateERKNS_7TfTokenERKNS_9TfHashMapIS1_NS_7VtValueENS1_11HashFunctorESt8equal_toIS1_ESaISt4pairIS2_S5_EEEE, ptr %9, align 8
  %10 = getelementptr inbounds nuw i8, ptr %6, i64 16
  store i64 91, ptr %10, align 8
  %11 = getelementptr inbounds nuw i8, ptr %6, i64 24
  store ptr @__PRETTY_FUNCTION__._ZN32pxrInternal_v0_24__pxrReserved__24HdRendererPluginRegistry20CreateRenderDelegateERKNS_7TfTokenERKNS_9TfHashMapIS1_NS_7VtValueENS1_11HashFunctorESt8equal_toIS1_ESaISt4pairIS2_S5_EEEE, ptr %11, align 8
  %12 = getelementptr inbounds nuw i8, ptr %6, i64 32
  store i8 0, ptr %12, align 8
  %13 = load ptr, ptr %2, align 8
  %14 = ptrtoint ptr %13 to i64
  %15 = and i64 %14, -8
  %.not.i = icmp eq i64 %15, 0
  br i1 %.not.i, label %_ZNK32pxrInternal_v0_24__pxrReserved__7TfToken7GetTextEv.exit, label %16

16:                                               ; preds = %8
  %17 = inttoptr i64 %15 to ptr
  %18 = getelementptr inbounds nuw i8, ptr %17, i64 16
  %19 = tail call noundef ptr @_ZNKSt7__cxx1112basic_stringIcSt11char_traitsIcESaIcEE5c_strEv(ptr noundef nonnull align 8 dereferenceable(32) %18) #12
  br label %_ZNK32pxrInternal_v0_24__pxrReserved__7TfToken7GetTextEv.exit

_ZNK32pxrInternal_v0_24__pxrReserved__7TfToken7GetTextEv.exit: ; preds = %8, %16
  %20 = phi ptr [ %19, %16 ], [ @.str.15, %8 ]
  invoke void (ptr, i32, ptr, ...) @_ZN32pxrInternal_v0_24__pxrReserved__18Tf_PostErrorHelperERKNS_13TfCallContextENS_16TfDiagnosticTypeEPKcz(ptr noundef nonnull align 8 dereferenceable(33) %6, i32 noundef 1, ptr noundef nonnull @.str.12, ptr noundef %20)
          to label %21 unwind label %22

21:                                               ; preds = %_ZNK32pxrInternal_v0_24__pxrReserved__7TfToken7GetTextEv.exit
  call void @llvm.memset.p0.i64(ptr noundef nonnull align 8 dereferenceable(16) %0, i8 0, i64 16, i1 false)
  br label %25

22:                                               ; preds = %24, %_ZNK32pxrInternal_v0_24__pxrReserved__7TfToken7GetTextEv.exit
  %23 = landingpad { ptr, i32 }
          cleanup
  call void @_ZN32pxrInternal_v0_24__pxrReserved__22HdRendererPluginHandleD1Ev(ptr noundef nonnull align 8 dereferenceable(8) %5) #12
  resume { ptr, i32 } %23

24:                                               ; preds = %4
  invoke void @_ZN32pxrInternal_v0_24__pxrReserved__16HdRendererPlugin14CreateDelegateERKNS_9TfHashMapINS_7TfTokenENS_7VtValueENS2_11HashFunctorESt8equal_toIS2_ESaISt4pairIKS2_S3_EEEE(ptr dead_on_unwind writable sret(%"class.pxrInternal_v0_24__pxrReserved__::HdPluginRenderDelegateUniqueHandle") align 8 %0, ptr noundef nonnull align 8 dereferenceable(8) %7, ptr noundef nonnull align 8 dereferenceable(56) %3)
          to label %25 unwind label %22

25:                                               ; preds = %21, %24
  call void @_ZN32pxrInternal_v0_24__pxrReserved__22HdRendererPluginHandleD1Ev(ptr noundef nonnull align 8 dereferenceable(8) %5) #12
  ret void
}